target datalayout = "e-m:e-p270:32:32-p271:32:32-p272:64:64-i64:64-i128:128-f80:128-n8:16:32:64-S128"
target triple = "x86_64-pc-linux-gnu"

%"class.tbb::detail::r1::basic_tls" = type { i32 }
%"class.tbb::detail::r1::rml::tbb_factory" = type { %"class.rml::factory", ptr, ptr }
%"class.rml::factory" = type { ptr, ptr }

@_ZN3tbb6detail2r18governor6theTLSE = external global %"class.tbb::detail::r1::basic_tls", align 4
@_ZN3tbb6detail2r18governor19theRMLServerFactoryE = external global %"class.tbb::detail::r1::rml::tbb_factory", align 8
@.str.1 = private unnamed_addr constant [41 x i8] c"failed to destroy task scheduler TLS: %s\00", align 1
@_ZN3tbb6detail2r1L27destroy_system_topology_ptrE = internal global ptr @_ZN3tbb6detail2r1L29dummy_destroy_system_topologyEv, align 8

; Function Attrs: mustprogress sspstrong uwtable
define void @_ZN3tbb6detail2r115system_topology7destroyEv() #1 {
  %1 = load ptr, ptr @_ZN3tbb6detail2r1L27destroy_system_topology_ptrE, align 8, !tbaa !12
  call void %1()
  ret void
}

; Function Attrs: mustprogress nounwind sspstrong uwtable
define linkonce_odr noundef i32 @_ZN3tbb6detail2r19basic_tlsIPNS1_11thread_dataEE7destroyEv(ptr noundef nonnull align 4 dereferenceable(4) %0) #3 comdat align 2 {
  %2 = alloca ptr, align 8
  store ptr %0, ptr %2, align 8, !tbaa !9
  %3 = load ptr, ptr %2, align 8
  %4 = getelementptr inbounds nuw %"class.tbb::detail::r1::basic_tls", ptr %3, i32 0, i32 0
  %5 = load i32, ptr %4, align 4, !tbaa !86
  %6 = call i32 @pthread_key_delete(i32 noundef %5) #12
  ret i32 %6
}

; Function Attrs: mustprogress sspstrong uwtable
define void @_ZN3tbb6detail2r18governor17release_resourcesEv() #1 align 2 {
  %1 = alloca i32, align 4
  call void @_ZN3tbb6detail2r13rml11tbb_factory5closeEv(ptr noundef nonnull align 8 dereferenceable(32) @_ZN3tbb6detail2r18governor19theRMLServerFactoryE)
  call void @_ZN3tbb6detail2r120destroy_process_maskEv()
  call void @llvm.lifetime.start.p0(i64 4, ptr %1) #12
  %2 = call noundef i32 @_ZN3tbb6detail2r19basic_tlsIPNS1_11thread_dataEE7destroyEv(ptr noundef nonnull align 4 dereferenceable(4) @_ZN3tbb6detail2r18governor6theTLSE)
  store i32 %2, ptr %1, align 4, !tbaa !3
  %3 = load i32, ptr %1, align 4, !tbaa !3
  %4 = icmp ne i32 %3, 0
  br i1 %4, label %5, label %8

5:                                                ; preds = %0
  %6 = load i32, ptr %1, align 4, !tbaa !3
  %7 = call ptr @strerror(i32 noundef %6) #12
  call void (ptr, ...) @_ZN3tbb6detail2r115runtime_warningEPKcz(ptr noundef @.str.1, ptr noundef %7)
  br label %8

8:                                                ; preds = %5, %0
  call void @_ZN3tbb6detail2r126clear_address_waiter_tableEv()
  call void @_ZN3tbb6detail2r115system_topology7destroyEv()
  call void @_ZN3tbb6detail2r118dynamic_unlink_allEv()
  call void @_ZN3tbb6detail2r122global_control_releaseEv()
  call void @llvm.lifetime.end.p0(i64 4, ptr %1) #12
  ret void
}