; Function Attrs: mustprogress sspstrong uwtable
define void @_ZN3tbb6detail2r18governor17release_resourcesEv() local_unnamed_addr #1 align 2 {
  tail call void @_ZN3tbb6detail2r13rml11tbb_factory5closeEv(ptr noundef nonnull align 8 dereferenceable(32) @_ZN3tbb6detail2r18governor19theRMLServerFactoryE)
  tail call void @_ZN3tbb6detail2r120destroy_process_maskEv()
  %1 = load i32, ptr @_ZN3tbb6detail2r18governor6theTLSE, align 4, !tbaa !73
  %2 = tail call noundef i32 @pthread_key_delete(i32 noundef %1) #8
  %.not = icmp eq i32 %2, 0
  br i1 %.not, label %5, label %3

3:                                                ; preds = %0
  %4 = tail call ptr @strerror(i32 noundef %2) #8
  tail call void (ptr, ...) @_ZN3tbb6detail2r115runtime_warningEPKcz(ptr noundef nonnull @.str.1, ptr noundef %4)
  br label %5

5:                                                ; preds = %3, %0
  tail call void @_ZN3tbb6detail2r126clear_address_waiter_tableEv()
  %6 = load ptr, ptr @_ZN3tbb6detail2r1L27destroy_system_topology_ptrE, align 8, !tbaa !98
  tail call void %6()
  tail call void @_ZN3tbb6detail2r118dynamic_unlink_allEv()
  tail call void @_ZN3tbb6detail2r122global_control_releaseEv()
  ret void
}